target datalayout = "e-m:e-p270:32:32-p271:32:32-p272:64:64-i64:64-i128:128-f80:128-n8:16:32:64-S128"
target triple = "x86_64-pc-linux-gnu"

; Function Attrs: nounwind uwtable
define internal i32 @DispatchAlpha_C(ptr noalias noundef %0, i32 noundef %1, i32 noundef %2, i32 noundef %3, ptr noalias noundef %4, i32 noundef %5) #0 {
  %7 = alloca ptr, align 8
  %8 = alloca i32, align 4
  %9 = alloca i32, align 4
  %10 = alloca i32, align 4
  %11 = alloca ptr, align 8
  %12 = alloca i32, align 4
  %13 = alloca i32, align 4
  %14 = alloca i32, align 4
  %15 = alloca i32, align 4
  %16 = alloca i32, align 4
  store ptr %0, ptr %7, align 8, !tbaa !13
  store i32 %1, ptr %8, align 4, !tbaa !8
  store i32 %2, ptr %9, align 4, !tbaa !8
  store i32 %3, ptr %10, align 4, !tbaa !8
  store ptr %4, ptr %11, align 8, !tbaa !13
  store i32 %5, ptr %12, align 4, !tbaa !8
  call void @llvm.lifetime.start.p0(i64 4, ptr %13) #5
  store i32 255, ptr %13, align 4, !tbaa !8
  call void @llvm.lifetime.start.p0(i64 4, ptr %14) #5
  call void @llvm.lifetime.start.p0(i64 4, ptr %15) #5
  store i32 0, ptr %15, align 4, !tbaa !8
  br label %17

17:                                               ; preds = %55, %6
  %18 = load i32, ptr %15, align 4, !tbaa !8
  %19 = load i32, ptr %10, align 4, !tbaa !8
  %20 = icmp slt i32 %18, %19
  br i1 %20, label %21, label %58

21:                                               ; preds = %17
  store i32 0, ptr %14, align 4, !tbaa !8
  br label %22

22:                                               ; preds = %43, %21
  %23 = load i32, ptr %14, align 4, !tbaa !8
  %24 = load i32, ptr %9, align 4, !tbaa !8
  %25 = icmp slt i32 %23, %24
  br i1 %25, label %26, label %46

26:                                               ; preds = %22
  call void @llvm.lifetime.start.p0(i64 4, ptr %16) #5
  %27 = load ptr, ptr %7, align 8, !tbaa !13
  %28 = load i32, ptr %14, align 4, !tbaa !8
  %29 = sext i32 %28 to i64
  %30 = getelementptr inbounds i8, ptr %27, i64 %29
  %31 = load i8, ptr %30, align 1, !tbaa !12
  %32 = zext i8 %31 to i32
  store i32 %32, ptr %16, align 4, !tbaa !8
  %33 = load i32, ptr %16, align 4, !tbaa !8
  %34 = trunc i32 %33 to i8
  %35 = load ptr, ptr %11, align 8, !tbaa !13
  %36 = load i32, ptr %14, align 4, !tbaa !8
  %37 = mul nsw i32 4, %36
  %38 = sext i32 %37 to i64
  %39 = getelementptr inbounds i8, ptr %35, i64 %38
  store i8 %34, ptr %39, align 1, !tbaa !12
  %40 = load i32, ptr %16, align 4, !tbaa !8
  %41 = load i32, ptr %13, align 4, !tbaa !8
  %42 = and i32 %41, %40
  store i32 %42, ptr %13, align 4, !tbaa !8
  call void @llvm.lifetime.end.p0(i64 4, ptr %16) #5
  br label %43

43:                                               ; preds = %26
  %44 = load i32, ptr %14, align 4, !tbaa !8
  %45 = add nsw i32 %44, 1
  store i32 %45, ptr %14, align 4, !tbaa !8
  br label %22, !llvm.loop !22

46:                                               ; preds = %22
  %47 = load i32, ptr %8, align 4, !tbaa !8
  %48 = load ptr, ptr %7, align 8, !tbaa !13
  %49 = sext i32 %47 to i64
  %50 = getelementptr inbounds i8, ptr %48, i64 %49
  store ptr %50, ptr %7, align 8, !tbaa !13
  %51 = load i32, ptr %12, align 4, !tbaa !8
  %52 = load ptr, ptr %11, align 8, !tbaa !13
  %53 = sext i32 %51 to i64
  %54 = getelementptr inbounds i8, ptr %52, i64 %53
  store ptr %54, ptr %11, align 8, !tbaa !13
  br label %55

55:                                               ; preds = %46
  %56 = load i32, ptr %15, align 4, !tbaa !8
  %57 = add nsw i32 %56, 1
  store i32 %57, ptr %15, align 4, !tbaa !8
  br label %17, !llvm.loop !23

58:                                               ; preds = %17
  %59 = load i32, ptr %13, align 4, !tbaa !8
  %60 = icmp ne i32 %59, 255
  %61 = zext i1 %60 to i32
  call void @llvm.lifetime.end.p0(i64 4, ptr %15) #5
  call void @llvm.lifetime.end.p0(i64 4, ptr %14) #5
  call void @llvm.lifetime.end.p0(i64 4, ptr %13) #5
  ret i32 %61
}