; Function Attrs: nofree norecurse nosync nounwind memory(argmem: readwrite) uwtable
define internal range(i32 0, 2) i32 @DispatchAlpha_C(ptr noalias noundef readonly captures(none) %0, i32 noundef %1, i32 noundef %2, i32 noundef %3, ptr noalias noundef writeonly captures(none) %4, i32 noundef %5) #0 {
  %7 = icmp sgt i32 %3, 0
  br i1 %7, label %.preheader.lr.ph, label %._crit_edge27

.preheader.lr.ph:                                 ; preds = %6
  %8 = icmp sgt i32 %2, 0
  %9 = sext i32 %1 to i64
  %10 = sext i32 %5 to i64
  br i1 %8, label %.preheader.us.preheader, label %._crit_edge27

.preheader.us.preheader:                          ; preds = %.preheader.lr.ph
  %wide.trip.count = zext nneg i32 %2 to i64
  br label %.preheader.us

.preheader.us:                                    ; preds = %.preheader.us.preheader, %._crit_edge.us
  %.026.us = phi ptr [ %18, %._crit_edge.us ], [ %0, %.preheader.us.preheader ]
  %.01725.us = phi i32 [ %20, %._crit_edge.us ], [ 0, %.preheader.us.preheader ]
  %.01924.us = phi i32 [ %17, %._crit_edge.us ], [ 255, %.preheader.us.preheader ]
  %.02023.us = phi ptr [ %19, %._crit_edge.us ], [ %4, %.preheader.us.preheader ]
  br label %11

11:                                               ; preds = %.preheader.us, %11
  %indvars.iv = phi i64 [ 0, %.preheader.us ], [ %indvars.iv.next, %11 ]
  %.121.us = phi i32 [ %.01924.us, %.preheader.us ], [ %17, %11 ]
  %12 = getelementptr inbounds nuw i8, ptr %.026.us, i64 %indvars.iv
  %13 = load i8, ptr %12, align 1, !tbaa !9
  %14 = zext i8 %13 to i32
  %15 = shl nsw i64 %indvars.iv, 2
  %16 = getelementptr inbounds nuw i8, ptr %.02023.us, i64 %15
  store i8 %13, ptr %16, align 1, !tbaa !9
  %17 = and i32 %.121.us, %14
  %indvars.iv.next = add nuw nsw i64 %indvars.iv, 1
  %exitcond.not = icmp eq i64 %indvars.iv.next, %wide.trip.count
  br i1 %exitcond.not, label %._crit_edge.us, label %11, !llvm.loop !20

._crit_edge.us:                                   ; preds = %11
  %18 = getelementptr inbounds i8, ptr %.026.us, i64 %9
  %19 = getelementptr inbounds i8, ptr %.02023.us, i64 %10
  %20 = add nuw nsw i32 %.01725.us, 1
  %exitcond31.not = icmp eq i32 %20, %3
  br i1 %exitcond31.not, label %._crit_edge27.loopexit, label %.preheader.us, !llvm.loop !21

._crit_edge27.loopexit:                           ; preds = %._crit_edge.us
  %21 = icmp ne i32 %17, 255
  %22 = zext i1 %21 to i32
  br label %._crit_edge27

._crit_edge27:                                    ; preds = %.preheader.lr.ph, %._crit_edge27.loopexit, %6
  %.019.lcssa = phi i32 [ 0, %6 ], [ %22, %._crit_edge27.loopexit ], [ 0, %.preheader.lr.ph ]
  ret i32 %.019.lcssa
}